target datalayout = "e-m:e-p270:32:32-p271:32:32-p272:64:64-i64:64-i128:128-f80:128-n8:16:32:64-S128"
target triple = "x86_64-pc-linux-gnu"

%struct.Node = type { i32 }
%struct.Expr = type { i32 }
%struct.ForEachState = type { ptr, i32 }
%struct.List = type { i32, i32, i32, ptr, [0 x %union.ListCell] }
%union.ListCell = type { ptr }
%struct.RestrictInfo = type { i32, ptr, i8, i8, i8, i8, i8, i8, i32, i32, i32, ptr, ptr, ptr, ptr, ptr, ptr, ptr, i32, ptr, %struct.QualCost, double, double, ptr, ptr, ptr, ptr, ptr, ptr, i8, i32, double, double, double, double, i32, i32 }
%struct.QualCost = type { double, double }
%struct.Const = type { %struct.Expr, i32, i32, i32, i32, i64, i8, i8, i32 }

; Function Attrs: inlinehint nounwind uwtable
define internal zeroext i1 @DatumGetBool(i64 noundef %0) #1 {
  %2 = alloca i64, align 8
  store i64 %0, ptr %2, align 8
  %3 = load i64, ptr %2, align 8
  %4 = icmp ne i64 %3, 0
  ret i1 %4
}

; Function Attrs: inlinehint nounwind uwtable
define internal zeroext i1 @rinfo_is_constant_true(ptr noundef %0) #1 {
  %2 = alloca ptr, align 8
  store ptr %0, ptr %2, align 8
  %3 = load ptr, ptr %2, align 8
  %4 = getelementptr inbounds nuw %struct.RestrictInfo, ptr %3, i32 0, i32 1
  %5 = load ptr, ptr %4, align 8
  %6 = getelementptr inbounds nuw %struct.Node, ptr %5, i32 0, i32 0
  %7 = load i32, ptr %6, align 4
  %8 = icmp eq i32 %7, 7
  br i1 %8, label %9, label %23

9:                                                ; preds = %1
  %10 = load ptr, ptr %2, align 8
  %11 = getelementptr inbounds nuw %struct.RestrictInfo, ptr %10, i32 0, i32 1
  %12 = load ptr, ptr %11, align 8
  %13 = getelementptr inbounds nuw %struct.Const, ptr %12, i32 0, i32 6
  %14 = load i8, ptr %13, align 8, !range !4, !noundef !5
  %15 = trunc i8 %14 to i1
  br i1 %15, label %23, label %16

16:                                               ; preds = %9
  %17 = load ptr, ptr %2, align 8
  %18 = getelementptr inbounds nuw %struct.RestrictInfo, ptr %17, i32 0, i32 1
  %19 = load ptr, ptr %18, align 8
  %20 = getelementptr inbounds nuw %struct.Const, ptr %19, i32 0, i32 5
  %21 = load i64, ptr %20, align 8
  %22 = call zeroext i1 @DatumGetBool(i64 noundef %21)
  br label %23

23:                                               ; preds = %16, %9, %1
  %24 = phi i1 [ false, %9 ], [ false, %1 ], [ %22, %16 ]
  ret i1 %24
}

; Function Attrs: nounwind uwtable
define dso_local ptr @extract_actual_clauses(ptr noundef %0, i1 noundef zeroext %1) #0 {
  %3 = alloca ptr, align 8
  %4 = alloca i8, align 1
  %5 = alloca ptr, align 8
  %6 = alloca ptr, align 8
  %7 = alloca %struct.ForEachState, align 8
  %8 = alloca ptr, align 8
  store ptr %0, ptr %3, align 8
  %9 = zext i1 %1 to i8
  store i8 %9, ptr %4, align 1
  call void @llvm.lifetime.start.p0(i64 8, ptr %5) #6
  store ptr null, ptr %5, align 8
  call void @llvm.lifetime.start.p0(i64 8, ptr %6) #6
  call void @llvm.lifetime.start.p0(i64 16, ptr %7) #6
  %10 = getelementptr inbounds nuw %struct.ForEachState, ptr %7, i32 0, i32 0
  %11 = load ptr, ptr %3, align 8
  store ptr %11, ptr %10, align 8
  %12 = getelementptr inbounds nuw %struct.ForEachState, ptr %7, i32 0, i32 1
  store i32 0, ptr %12, align 8
  %13 = getelementptr i8, ptr %7, i64 12
  call void @llvm.memset.p0.i64(ptr align 4 %13, i8 0, i64 4, i1 false)
  br label %14

14:                                               ; preds = %62, %2
  %15 = getelementptr inbounds nuw %struct.ForEachState, ptr %7, i32 0, i32 0
  %16 = load ptr, ptr %15, align 8
  %17 = icmp ne ptr %16, null
  br i1 %17, label %18, label %35

18:                                               ; preds = %14
  %19 = getelementptr inbounds nuw %struct.ForEachState, ptr %7, i32 0, i32 1
  %20 = load i32, ptr %19, align 8
  %21 = getelementptr inbounds nuw %struct.ForEachState, ptr %7, i32 0, i32 0
  %22 = load ptr, ptr %21, align 8
  %23 = getelementptr inbounds nuw %struct.List, ptr %22, i32 0, i32 1
  %24 = load i32, ptr %23, align 4
  %25 = icmp slt i32 %20, %24
  br i1 %25, label %26, label %35

26:                                               ; preds = %18
  %27 = getelementptr inbounds nuw %struct.ForEachState, ptr %7, i32 0, i32 0
  %28 = load ptr, ptr %27, align 8
  %29 = getelementptr inbounds nuw %struct.List, ptr %28, i32 0, i32 3
  %30 = load ptr, ptr %29, align 8
  %31 = getelementptr inbounds nuw %struct.ForEachState, ptr %7, i32 0, i32 1
  %32 = load i32, ptr %31, align 8
  %33 = sext i32 %32 to i64
  %34 = getelementptr inbounds %union.ListCell, ptr %30, i64 %33
  store ptr %34, ptr %6, align 8
  br label %36

35:                                               ; preds = %18, %14
  store ptr null, ptr %6, align 8
  br label %36

36:                                               ; preds = %35, %26
  %37 = phi i32 [ 1, %26 ], [ 0, %35 ]
  %38 = icmp ne i32 %37, 0
  br i1 %38, label %40, label %39

39:                                               ; preds = %36
  call void @llvm.lifetime.end.p0(i64 16, ptr %7) #6
  br label %66

40:                                               ; preds = %36
  call void @llvm.lifetime.start.p0(i64 8, ptr %8) #6
  %41 = load ptr, ptr %6, align 8
  %42 = load ptr, ptr %41, align 8
  store ptr %42, ptr %8, align 8
  %43 = load ptr, ptr %8, align 8
  %44 = getelementptr inbounds nuw %struct.RestrictInfo, ptr %43, i32 0, i32 4
  %45 = load i8, ptr %44, align 2, !range !4, !noundef !5
  %46 = trunc i8 %45 to i1
  %47 = zext i1 %46 to i32
  %48 = load i8, ptr %4, align 1, !range !4, !noundef !5
  %49 = trunc i8 %48 to i1
  %50 = zext i1 %49 to i32
  %51 = icmp eq i32 %47, %50
  br i1 %51, label %52, label %61

52:                                               ; preds = %40
  %53 = load ptr, ptr %8, align 8
  %54 = call zeroext i1 @rinfo_is_constant_true(ptr noundef %53)
  br i1 %54, label %61, label %55

55:                                               ; preds = %52
  %56 = load ptr, ptr %5, align 8
  %57 = load ptr, ptr %8, align 8
  %58 = getelementptr inbounds nuw %struct.RestrictInfo, ptr %57, i32 0, i32 1
  %59 = load ptr, ptr %58, align 8
  %60 = call ptr @lappend(ptr noundef %56, ptr noundef %59)
  store ptr %60, ptr %5, align 8
  br label %61

61:                                               ; preds = %55, %52, %40
  call void @llvm.lifetime.end.p0(i64 8, ptr %8) #6
  br label %62

62:                                               ; preds = %61
  %63 = getelementptr inbounds nuw %struct.ForEachState, ptr %7, i32 0, i32 1
  %64 = load i32, ptr %63, align 8
  %65 = add i32 %64, 1
  store i32 %65, ptr %63, align 8
  br label %14, !llvm.loop !10

66:                                               ; preds = %39
  %67 = load ptr, ptr %5, align 8
  call void @llvm.lifetime.end.p0(i64 8, ptr %6) #6
  call void @llvm.lifetime.end.p0(i64 8, ptr %5) #6
  ret ptr %67
}