; Function Attrs: nounwind uwtable
define dso_local ptr @extract_actual_clauses(ptr noundef readonly captures(address_is_null) %0, i1 noundef zeroext %1) local_unnamed_addr #0 {
  %3 = getelementptr inbounds nuw i8, ptr %0, i64 4
  %.not = icmp eq ptr %0, null
  br i1 %.not, label %._crit_edge, label %.lr.ph

.lr.ph:                                           ; preds = %2
  %4 = getelementptr inbounds nuw i8, ptr %0, i64 16
  %5 = zext i1 %1 to i8
  %6 = load i32, ptr %3, align 4
  %7 = icmp sgt i32 %6, 0
  br i1 %7, label %.lr.ph24, label %._crit_edge

._crit_edge:                                      ; preds = %26, %.lr.ph, %2
  %.0.lcssa = phi ptr [ null, %2 ], [ null, %.lr.ph ], [ %.1, %26 ]
  ret ptr %.0.lcssa

.lr.ph24:                                         ; preds = %.lr.ph, %26
  %8 = phi i32 [ %27, %26 ], [ %6, %.lr.ph ]
  %indvars.iv = phi i64 [ %indvars.iv.next, %26 ], [ 0, %.lr.ph ]
  %.01822 = phi ptr [ %.1, %26 ], [ null, %.lr.ph ]
  %9 = load ptr, ptr %4, align 8
  %10 = getelementptr inbounds nuw %union.ListCell, ptr %9, i64 %indvars.iv
  %11 = load ptr, ptr %10, align 8
  %12 = getelementptr inbounds nuw i8, ptr %11, i64 18
  %13 = load i8, ptr %12, align 2, !range !4, !noundef !5
  %14 = icmp eq i8 %13, %5
  br i1 %14, label %15, label %26

15:                                               ; preds = %.lr.ph24
  %16 = getelementptr i8, ptr %11, i64 8
  %.val = load ptr, ptr %16, align 8
  %17 = load i32, ptr %.val, align 4
  %18 = icmp eq i32 %17, 7
  br i1 %18, label %19, label %rinfo_is_constant_true.exit.thread

19:                                               ; preds = %15
  %20 = getelementptr inbounds nuw i8, ptr %.val, i64 32
  %21 = load i8, ptr %20, align 8, !range !4, !noundef !5
  %22 = trunc nuw i8 %21 to i1
  br i1 %22, label %rinfo_is_constant_true.exit.thread, label %rinfo_is_constant_true.exit

rinfo_is_constant_true.exit:                      ; preds = %19
  %23 = getelementptr inbounds nuw i8, ptr %.val, i64 24
  %24 = load i64, ptr %23, align 8
  %.not16 = icmp eq i64 %24, 0
  br i1 %.not16, label %rinfo_is_constant_true.exit.thread, label %26

rinfo_is_constant_true.exit.thread:               ; preds = %15, %19, %rinfo_is_constant_true.exit
  %25 = tail call ptr @lappend(ptr noundef %.01822, ptr noundef nonnull %.val) #5
  %.pre = load i32, ptr %3, align 4
  br label %26

26:                                               ; preds = %rinfo_is_constant_true.exit.thread, %rinfo_is_constant_true.exit, %.lr.ph24
  %27 = phi i32 [ %8, %rinfo_is_constant_true.exit ], [ %.pre, %rinfo_is_constant_true.exit.thread ], [ %8, %.lr.ph24 ]
  %.1 = phi ptr [ %.01822, %rinfo_is_constant_true.exit ], [ %25, %rinfo_is_constant_true.exit.thread ], [ %.01822, %.lr.ph24 ]
  %indvars.iv.next = add nuw nsw i64 %indvars.iv, 1
  %28 = sext i32 %27 to i64
  %29 = icmp slt i64 %indvars.iv.next, %28
  br i1 %29, label %.lr.ph24, label %._crit_edge
}